; Function Attrs: mustprogress nofree norecurse nosync nounwind willreturn memory(readwrite, inaccessiblemem: none) uwtable
define hidden void @_ZN3nla4core20erase_from_to_refineEj(ptr noundef nonnull align 8 captures(none) dereferenceable(4736) %0, i32 noundef %1) local_unnamed_addr #13 align 2 {
  %3 = getelementptr inbounds nuw i8, ptr %0, i64 288
  %4 = getelementptr inbounds nuw i8, ptr %0, i64 304
  %5 = load ptr, ptr %4, align 8, !tbaa !188
  %6 = icmp eq ptr %5, null
  br i1 %6, label %_ZN16indexed_uint_set6removeEj.exit, label %_ZNK6vectorIjLb0EjE4sizeEv.exit.i

_ZNK6vectorIjLb0EjE4sizeEv.exit.i:                ; preds = %2
  %7 = getelementptr inbounds i8, ptr %5, i64 -4
  %8 = load i32, ptr %7, align 4, !tbaa !249
  %9 = icmp ult i32 %1, %8
  br i1 %9, label %10, label %_ZN16indexed_uint_set6removeEj.exit

10:                                               ; preds = %_ZNK6vectorIjLb0EjE4sizeEv.exit.i
  %11 = zext i32 %1 to i64
  %12 = getelementptr inbounds nuw i32, ptr %5, i64 %11
  %13 = load i32, ptr %12, align 4, !tbaa !249
  %14 = load i32, ptr %3, align 8, !tbaa !189
  %15 = icmp ult i32 %13, %14
  br i1 %15, label %_ZNK16indexed_uint_set8containsEj.exit, label %_ZN16indexed_uint_set6removeEj.exit

_ZNK16indexed_uint_set8containsEj.exit:           ; preds = %10
  %16 = getelementptr inbounds nuw i8, ptr %0, i64 296
  %17 = load ptr, ptr %16, align 8, !tbaa !188
  %18 = zext i32 %13 to i64
  %19 = getelementptr inbounds nuw i32, ptr %17, i64 %18
  %20 = load i32, ptr %19, align 4, !tbaa !249
  %21 = icmp eq i32 %20, %1
  br i1 %21, label %22, label %_ZN16indexed_uint_set6removeEj.exit

22:                                               ; preds = %_ZNK16indexed_uint_set8containsEj.exit
  %23 = add i32 %14, -1
  store i32 %23, ptr %3, align 8, !tbaa !189
  %24 = zext i32 %23 to i64
  %25 = getelementptr inbounds nuw i32, ptr %17, i64 %24
  %26 = load i32, ptr %25, align 4, !tbaa !249
  %.not.i = icmp eq i32 %1, %26
  br i1 %.not.i, label %_ZN16indexed_uint_set6removeEj.exit, label %27

27:                                               ; preds = %22
  %28 = load i32, ptr %12, align 4, !tbaa !249
  %29 = zext i32 %26 to i64
  %30 = getelementptr inbounds nuw i32, ptr %5, i64 %29
  store i32 %28, ptr %30, align 4, !tbaa !249
  %31 = zext i32 %28 to i64
  %32 = getelementptr inbounds nuw i32, ptr %17, i64 %31
  store i32 %26, ptr %32, align 4, !tbaa !249
  %33 = load i32, ptr %3, align 8, !tbaa !189
  store i32 %33, ptr %12, align 4, !tbaa !249
  %34 = zext i32 %33 to i64
  %35 = getelementptr inbounds nuw i32, ptr %17, i64 %34
  store i32 %1, ptr %35, align 4, !tbaa !249
  br label %_ZN16indexed_uint_set6removeEj.exit

_ZN16indexed_uint_set6removeEj.exit:              ; preds = %2, %_ZNK6vectorIjLb0EjE4sizeEv.exit.i, %10, %27, %22, %_ZNK16indexed_uint_set8containsEj.exit
  ret void
}